target datalayout = "e-m:e-p270:32:32-p271:32:32-p272:64:64-i64:64-i128:128-f80:128-n8:16:32:64-S128"
target triple = "x86_64-pc-linux-gnu"

; Function Attrs: nounwind sspstrong uwtable
define hidden void @FLAC__window_gauss(ptr noundef %0, i32 noundef %1, float noundef %2) #0 {
  %4 = alloca ptr, align 8
  %5 = alloca i32, align 4
  %6 = alloca float, align 4
  %7 = alloca i32, align 4
  %8 = alloca double, align 8
  %9 = alloca i32, align 4
  %10 = alloca double, align 8
  store ptr %0, ptr %4, align 8, !tbaa !3
  store i32 %1, ptr %5, align 4, !tbaa !8
  store float %2, ptr %6, align 4, !tbaa !10
  call void @llvm.lifetime.start.p0(i64 4, ptr %7) #4
  %11 = load i32, ptr %5, align 4, !tbaa !8
  %12 = sub nsw i32 %11, 1
  store i32 %12, ptr %7, align 4, !tbaa !8
  call void @llvm.lifetime.start.p0(i64 8, ptr %8) #4
  %13 = load i32, ptr %7, align 4, !tbaa !8
  %14 = sitofp i32 %13 to double
  %15 = fdiv reassoc nsz arcp double %14, 2.000000e+00
  store double %15, ptr %8, align 8, !tbaa !20
  call void @llvm.lifetime.start.p0(i64 4, ptr %9) #4
  %16 = load float, ptr %6, align 4, !tbaa !10
  %17 = fcmp reassoc nsz arcp ogt float %16, 0.000000e+00
  br i1 %17, label %18, label %21

18:                                               ; preds = %3
  %19 = load float, ptr %6, align 4, !tbaa !10
  %20 = fcmp reassoc nsz arcp ole float %19, 5.000000e-01
  br i1 %20, label %24, label %21

21:                                               ; preds = %18, %3
  %22 = load ptr, ptr %4, align 8, !tbaa !3
  %23 = load i32, ptr %5, align 4, !tbaa !8
  call void @FLAC__window_gauss(ptr noundef %22, i32 noundef %23, float noundef 2.500000e-01)
  br label %53

24:                                               ; preds = %18
  store i32 0, ptr %9, align 4, !tbaa !8
  br label %25

25:                                               ; preds = %49, %24
  %26 = load i32, ptr %9, align 4, !tbaa !8
  %27 = load i32, ptr %7, align 4, !tbaa !8
  %28 = icmp sle i32 %26, %27
  br i1 %28, label %29, label %52

29:                                               ; preds = %25
  call void @llvm.lifetime.start.p0(i64 8, ptr %10) #4
  %30 = load i32, ptr %9, align 4, !tbaa !8
  %31 = sitofp i32 %30 to double
  %32 = load double, ptr %8, align 8, !tbaa !20
  %33 = fsub reassoc nsz arcp double %31, %32
  %34 = load float, ptr %6, align 4, !tbaa !10
  %35 = fpext reassoc nsz arcp float %34 to double
  %36 = load double, ptr %8, align 8, !tbaa !20
  %37 = fmul reassoc nsz arcp double %35, %36
  %38 = fdiv reassoc nsz arcp double %33, %37
  store double %38, ptr %10, align 8, !tbaa !20
  %39 = load double, ptr %10, align 8, !tbaa !20
  %40 = fmul reassoc nsz arcp double -5.000000e-01, %39
  %41 = load double, ptr %10, align 8, !tbaa !20
  %42 = fmul reassoc nsz arcp double %40, %41
  %43 = call reassoc nsz arcp double @exp(double noundef %42) #4, !tbaa !8
  %44 = fptrunc reassoc nsz arcp double %43 to float
  %45 = load ptr, ptr %4, align 8, !tbaa !3
  %46 = load i32, ptr %9, align 4, !tbaa !8
  %47 = sext i32 %46 to i64
  %48 = getelementptr inbounds float, ptr %45, i64 %47
  store float %44, ptr %48, align 4, !tbaa !10
  call void @llvm.lifetime.end.p0(i64 8, ptr %10) #4
  br label %49

49:                                               ; preds = %29
  %50 = load i32, ptr %9, align 4, !tbaa !8
  %51 = add nsw i32 %50, 1
  store i32 %51, ptr %9, align 4, !tbaa !8
  br label %25, !llvm.loop !24

52:                                               ; preds = %25
  br label %53

53:                                               ; preds = %52, %21
  call void @llvm.lifetime.end.p0(i64 4, ptr %9) #4
  call void @llvm.lifetime.end.p0(i64 8, ptr %8) #4
  call void @llvm.lifetime.end.p0(i64 4, ptr %7) #4
  ret void
}