; Function Attrs: nofree nounwind sspstrong memory(write) uwtable
define hidden void @FLAC__window_gauss(ptr noundef writeonly captures(none) %0, i32 noundef %1, float noundef %2) local_unnamed_addr #1 {
  %4 = add nsw i32 %1, -1
  %5 = sitofp i32 %4 to double
  %6 = fmul reassoc nsz arcp double %5, 5.000000e-01
  %7 = fcmp reassoc nsz arcp ogt float %2, 0.000000e+00
  %8 = fcmp reassoc nsz arcp ole float %2, 5.000000e-01
  %or.cond = and i1 %7, %8
  %.not.not22 = icmp sgt i32 %1, 0
  br i1 %or.cond, label %.preheader, label %.preheader18

.preheader18:                                     ; preds = %3
  br i1 %.not.not22, label %.lr.ph, label %FLAC__window_gauss.exit

.lr.ph:                                           ; preds = %.preheader18
  %9 = fdiv reassoc nsz arcp double 8.000000e+00, %5
  %invariant.op = fmul reassoc nsz arcp double %9, -5.000000e-01
  %wide.trip.count = zext nneg i32 %1 to i64
  br label %13

.preheader:                                       ; preds = %3
  br i1 %.not.not22, label %.lr.ph24, label %FLAC__window_gauss.exit

.lr.ph24:                                         ; preds = %.preheader
  %10 = fpext reassoc nsz arcp float %2 to double
  %11 = fmul reassoc nsz arcp double %6, %10
  %12 = fdiv reassoc nsz arcp double 1.000000e+00, %11
  %invariant.op25 = fmul reassoc nsz arcp double %12, -5.000000e-01
  %wide.trip.count32 = zext nneg i32 %1 to i64
  br label %22

13:                                               ; preds = %.lr.ph, %13
  %indvars.iv = phi i64 [ 0, %.lr.ph ], [ %indvars.iv.next, %13 ]
  %14 = trunc nuw nsw i64 %indvars.iv to i32
  %15 = uitofp nneg i32 %14 to double
  %16 = fsub reassoc nsz arcp double %15, %6
  %17 = fmul reassoc nsz arcp double %16, %9
  %.reass = fmul reassoc nsz arcp double %16, %invariant.op
  %18 = fmul reassoc nsz arcp double %.reass, %17
  %19 = tail call reassoc nsz arcp double @exp(double noundef %18) #6, !tbaa !12
  %20 = fptrunc reassoc nsz arcp double %19 to float
  %21 = getelementptr inbounds nuw float, ptr %0, i64 %indvars.iv
  store float %20, ptr %21, align 4, !tbaa !3
  %indvars.iv.next = add nuw nsw i64 %indvars.iv, 1
  %exitcond.not = icmp eq i64 %indvars.iv.next, %wide.trip.count
  br i1 %exitcond.not, label %FLAC__window_gauss.exit, label %13, !llvm.loop !19

22:                                               ; preds = %.lr.ph24, %22
  %indvars.iv29 = phi i64 [ 0, %.lr.ph24 ], [ %indvars.iv.next30, %22 ]
  %23 = trunc nuw nsw i64 %indvars.iv29 to i32
  %24 = uitofp nneg i32 %23 to double
  %25 = fsub reassoc nsz arcp double %24, %6
  %26 = fmul reassoc nsz arcp double %25, %12
  %.reass26 = fmul reassoc nsz arcp double %25, %invariant.op25
  %27 = fmul reassoc nsz arcp double %.reass26, %26
  %28 = tail call reassoc nsz arcp double @exp(double noundef %27) #6, !tbaa !12
  %29 = fptrunc reassoc nsz arcp double %28 to float
  %30 = getelementptr inbounds nuw float, ptr %0, i64 %indvars.iv29
  store float %29, ptr %30, align 4, !tbaa !3
  %indvars.iv.next30 = add nuw nsw i64 %indvars.iv29, 1
  %exitcond33.not = icmp eq i64 %indvars.iv.next30, %wide.trip.count32
  br i1 %exitcond33.not, label %FLAC__window_gauss.exit, label %22, !llvm.loop !19

FLAC__window_gauss.exit:                          ; preds = %13, %22, %.preheader18, %.preheader
  ret void
}